target datalayout = "e-m:e-p270:32:32-p271:32:32-p272:64:64-i64:64-i128:128-f80:128-n8:16:32:64-S128"
target triple = "x86_64-pc-linux-gnu"

%struct.VP8EncProba = type { [3 x i8], i8, [4 x [8 x [3 x [11 x i8]]]], [4 x [8 x [3 x [11 x i32]]]], [4 x [8 x [3 x [68 x i16]]]], [4 x [16 x [3 x ptr]]], i32, i32, i32 }

@VP8EncBands = external constant [17 x i8], align 16
@VP8EntropyCost = external constant [256 x i16], align 16

; Function Attrs: nounwind uwtable
define internal i32 @VariableLevelCost(i32 noundef %0, ptr noundef %1) #0 {
  %3 = alloca i32, align 4
  %4 = alloca ptr, align 8
  %5 = alloca i32, align 4
  %6 = alloca i32, align 4
  %7 = alloca i32, align 4
  %8 = alloca i32, align 4
  store i32 %0, ptr %3, align 4
  store ptr %1, ptr %4, align 8
  %9 = load i32, ptr %3, align 4
  %10 = sub nsw i32 %9, 1
  %11 = sext i32 %10 to i64
  %12 = getelementptr inbounds [67 x [2 x i16]], ptr @VP8LevelCodes, i64 0, i64 %11
  %13 = getelementptr inbounds [2 x i16], ptr %12, i64 0, i64 0
  %14 = load i16, ptr %13, align 4
  %15 = zext i16 %14 to i32
  store i32 %15, ptr %5, align 4
  %16 = load i32, ptr %3, align 4
  %17 = sub nsw i32 %16, 1
  %18 = sext i32 %17 to i64
  %19 = getelementptr inbounds [67 x [2 x i16]], ptr @VP8LevelCodes, i64 0, i64 %18
  %20 = getelementptr inbounds [2 x i16], ptr %19, i64 0, i64 1
  %21 = load i16, ptr %20, align 2
  %22 = zext i16 %21 to i32
  store i32 %22, ptr %6, align 4
  store i32 0, ptr %7, align 4
  store i32 2, ptr %8, align 4
  br label %23

23:                                               ; preds = %46, %2
  %24 = load i32, ptr %5, align 4
  %25 = icmp ne i32 %24, 0
  br i1 %25, label %26, label %49

26:                                               ; preds = %23
  %27 = load i32, ptr %5, align 4
  %28 = and i32 %27, 1
  %29 = icmp ne i32 %28, 0
  br i1 %29, label %30, label %41

30:                                               ; preds = %26
  %31 = load i32, ptr %6, align 4
  %32 = and i32 %31, 1
  %33 = load ptr, ptr %4, align 8
  %34 = load i32, ptr %8, align 4
  %35 = sext i32 %34 to i64
  %36 = getelementptr inbounds i8, ptr %33, i64 %35
  %37 = load i8, ptr %36, align 1
  %38 = call i32 @VP8BitCost(i32 noundef %32, i8 noundef zeroext %37)
  %39 = load i32, ptr %7, align 4
  %40 = add nsw i32 %39, %38
  store i32 %40, ptr %7, align 4
  br label %41

41:                                               ; preds = %30, %26
  %42 = load i32, ptr %6, align 4
  %43 = ashr i32 %42, 1
  store i32 %43, ptr %6, align 4
  %44 = load i32, ptr %5, align 4
  %45 = ashr i32 %44, 1
  store i32 %45, ptr %5, align 4
  br label %46

46:                                               ; preds = %41
  %47 = load i32, ptr %8, align 4
  %48 = add nsw i32 %47, 1
  store i32 %48, ptr %8, align 4
  br label %23, !llvm.loop !11

49:                                               ; preds = %23
  %50 = load i32, ptr %7, align 4
  ret i32 %50
}

; Function Attrs: nounwind uwtable
define internal i32 @VP8BitCost(i32 noundef %0, i8 noundef zeroext %1) #0 {
  %3 = alloca i32, align 4
  %4 = alloca i8, align 1
  store i32 %0, ptr %3, align 4
  store i8 %1, ptr %4, align 1
  %5 = load i32, ptr %3, align 4
  %6 = icmp ne i32 %5, 0
  br i1 %6, label %13, label %7

7:                                                ; preds = %2
  %8 = load i8, ptr %4, align 1
  %9 = zext i8 %8 to i64
  %10 = getelementptr inbounds [256 x i16], ptr @VP8EntropyCost, i64 0, i64 %9
  %11 = load i16, ptr %10, align 2
  %12 = zext i16 %11 to i32
  br label %21

13:                                               ; preds = %2
  %14 = load i8, ptr %4, align 1
  %15 = zext i8 %14 to i32
  %16 = sub nsw i32 255, %15
  %17 = sext i32 %16 to i64
  %18 = getelementptr inbounds [256 x i16], ptr @VP8EntropyCost, i64 0, i64 %17
  %19 = load i16, ptr %18, align 2
  %20 = zext i16 %19 to i32
  br label %21

21:                                               ; preds = %13, %7
  %22 = phi i32 [ %12, %7 ], [ %20, %13 ]
  ret i32 %22
}

; Function Attrs: nounwind uwtable
define hidden void @VP8CalculateLevelCosts(ptr noundef %0) #0 {
  %2 = alloca ptr, align 8
  %3 = alloca i32, align 4
  %4 = alloca i32, align 4
  %5 = alloca i32, align 4
  %6 = alloca i32, align 4
  %7 = alloca ptr, align 8
  %8 = alloca ptr, align 8
  %9 = alloca i32, align 4
  %10 = alloca i32, align 4
  %11 = alloca i32, align 4
  store ptr %0, ptr %2, align 8
  %12 = load ptr, ptr %2, align 8
  %13 = getelementptr inbounds %struct.VP8EncProba, ptr %12, i32 0, i32 6
  %14 = load i32, ptr %13, align 8
  %15 = icmp ne i32 %14, 0
  br i1 %15, label %17, label %16

16:                                               ; preds = %1
  br label %153

17:                                               ; preds = %1
  store i32 0, ptr %3, align 4
  br label %18

18:                                               ; preds = %147, %17
  %19 = load i32, ptr %3, align 4
  %20 = icmp slt i32 %19, 4
  br i1 %20, label %21, label %150

21:                                               ; preds = %18
  store i32 0, ptr %4, align 4
  br label %22

22:                                               ; preds = %101, %21
  %23 = load i32, ptr %4, align 4
  %24 = icmp slt i32 %23, 8
  br i1 %24, label %25, label %104

25:                                               ; preds = %22
  store i32 0, ptr %5, align 4
  br label %26

26:                                               ; preds = %97, %25
  %27 = load i32, ptr %5, align 4
  %28 = icmp slt i32 %27, 3
  br i1 %28, label %29, label %100

29:                                               ; preds = %26
  %30 = load ptr, ptr %2, align 8
  %31 = getelementptr inbounds %struct.VP8EncProba, ptr %30, i32 0, i32 2
  %32 = load i32, ptr %3, align 4
  %33 = sext i32 %32 to i64
  %34 = getelementptr inbounds [4 x [8 x [3 x [11 x i8]]]], ptr %31, i64 0, i64 %33
  %35 = load i32, ptr %4, align 4
  %36 = sext i32 %35 to i64
  %37 = getelementptr inbounds [8 x [3 x [11 x i8]]], ptr %34, i64 0, i64 %36
  %38 = load i32, ptr %5, align 4
  %39 = sext i32 %38 to i64
  %40 = getelementptr inbounds [3 x [11 x i8]], ptr %37, i64 0, i64 %39
  %41 = getelementptr inbounds [11 x i8], ptr %40, i64 0, i64 0
  store ptr %41, ptr %7, align 8
  %42 = load ptr, ptr %2, align 8
  %43 = getelementptr inbounds %struct.VP8EncProba, ptr %42, i32 0, i32 4
  %44 = load i32, ptr %3, align 4
  %45 = sext i32 %44 to i64
  %46 = getelementptr inbounds [4 x [8 x [3 x [68 x i16]]]], ptr %43, i64 0, i64 %45
  %47 = load i32, ptr %4, align 4
  %48 = sext i32 %47 to i64
  %49 = getelementptr inbounds [8 x [3 x [68 x i16]]], ptr %46, i64 0, i64 %48
  %50 = load i32, ptr %5, align 4
  %51 = sext i32 %50 to i64
  %52 = getelementptr inbounds [3 x [68 x i16]], ptr %49, i64 0, i64 %51
  %53 = getelementptr inbounds [68 x i16], ptr %52, i64 0, i64 0
  store ptr %53, ptr %8, align 8
  %54 = load i32, ptr %5, align 4
  %55 = icmp sgt i32 %54, 0
  br i1 %55, label %56, label %61

56:                                               ; preds = %29
  %57 = load ptr, ptr %7, align 8
  %58 = getelementptr inbounds i8, ptr %57, i64 0
  %59 = load i8, ptr %58, align 1
  %60 = call i32 @VP8BitCost(i32 noundef 1, i8 noundef zeroext %59)
  br label %62

61:                                               ; preds = %29
  br label %62

62:                                               ; preds = %61, %56
  %63 = phi i32 [ %60, %56 ], [ 0, %61 ]
  store i32 %63, ptr %9, align 4
  %64 = load ptr, ptr %7, align 8
  %65 = getelementptr inbounds i8, ptr %64, i64 1
  %66 = load i8, ptr %65, align 1
  %67 = call i32 @VP8BitCost(i32 noundef 1, i8 noundef zeroext %66)
  %68 = load i32, ptr %9, align 4
  %69 = add nsw i32 %67, %68
  store i32 %69, ptr %10, align 4
  %70 = load ptr, ptr %7, align 8
  %71 = getelementptr inbounds i8, ptr %70, i64 1
  %72 = load i8, ptr %71, align 1
  %73 = call i32 @VP8BitCost(i32 noundef 0, i8 noundef zeroext %72)
  %74 = load i32, ptr %9, align 4
  %75 = add nsw i32 %73, %74
  %76 = trunc i32 %75 to i16
  %77 = load ptr, ptr %8, align 8
  %78 = getelementptr inbounds i16, ptr %77, i64 0
  store i16 %76, ptr %78, align 2
  store i32 1, ptr %11, align 4
  br label %79

79:                                               ; preds = %93, %62
  %80 = load i32, ptr %11, align 4
  %81 = icmp sle i32 %80, 67
  br i1 %81, label %82, label %96

82:                                               ; preds = %79
  %83 = load i32, ptr %10, align 4
  %84 = load i32, ptr %11, align 4
  %85 = load ptr, ptr %7, align 8
  %86 = call i32 @VariableLevelCost(i32 noundef %84, ptr noundef %85)
  %87 = add nsw i32 %83, %86
  %88 = trunc i32 %87 to i16
  %89 = load ptr, ptr %8, align 8
  %90 = load i32, ptr %11, align 4
  %91 = sext i32 %90 to i64
  %92 = getelementptr inbounds i16, ptr %89, i64 %91
  store i16 %88, ptr %92, align 2
  br label %93

93:                                               ; preds = %82
  %94 = load i32, ptr %11, align 4
  %95 = add nsw i32 %94, 1
  store i32 %95, ptr %11, align 4
  br label %79, !llvm.loop !4

96:                                               ; preds = %79
  br label %97

97:                                               ; preds = %96
  %98 = load i32, ptr %5, align 4
  %99 = add nsw i32 %98, 1
  store i32 %99, ptr %5, align 4
  br label %26, !llvm.loop !6

100:                                              ; preds = %26
  br label %101

101:                                              ; preds = %100
  %102 = load i32, ptr %4, align 4
  %103 = add nsw i32 %102, 1
  store i32 %103, ptr %4, align 4
  br label %22, !llvm.loop !7

104:                                              ; preds = %22
  store i32 0, ptr %6, align 4
  br label %105

105:                                              ; preds = %143, %104
  %106 = load i32, ptr %6, align 4
  %107 = icmp slt i32 %106, 16
  br i1 %107, label %108, label %146

108:                                              ; preds = %105
  store i32 0, ptr %5, align 4
  br label %109

109:                                              ; preds = %139, %108
  %110 = load i32, ptr %5, align 4
  %111 = icmp slt i32 %110, 3
  br i1 %111, label %112, label %142

112:                                              ; preds = %109
  %113 = load ptr, ptr %2, align 8
  %114 = getelementptr inbounds %struct.VP8EncProba, ptr %113, i32 0, i32 4
  %115 = load i32, ptr %3, align 4
  %116 = sext i32 %115 to i64
  %117 = getelementptr inbounds [4 x [8 x [3 x [68 x i16]]]], ptr %114, i64 0, i64 %116
  %118 = load i32, ptr %6, align 4
  %119 = sext i32 %118 to i64
  %120 = getelementptr inbounds [17 x i8], ptr @VP8EncBands, i64 0, i64 %119
  %121 = load i8, ptr %120, align 1
  %122 = zext i8 %121 to i64
  %123 = getelementptr inbounds [8 x [3 x [68 x i16]]], ptr %117, i64 0, i64 %122
  %124 = load i32, ptr %5, align 4
  %125 = sext i32 %124 to i64
  %126 = getelementptr inbounds [3 x [68 x i16]], ptr %123, i64 0, i64 %125
  %127 = getelementptr inbounds [68 x i16], ptr %126, i64 0, i64 0
  %128 = load ptr, ptr %2, align 8
  %129 = getelementptr inbounds %struct.VP8EncProba, ptr %128, i32 0, i32 5
  %130 = load i32, ptr %3, align 4
  %131 = sext i32 %130 to i64
  %132 = getelementptr inbounds [4 x [16 x [3 x ptr]]], ptr %129, i64 0, i64 %131
  %133 = load i32, ptr %6, align 4
  %134 = sext i32 %133 to i64
  %135 = getelementptr inbounds [16 x [3 x ptr]], ptr %132, i64 0, i64 %134
  %136 = load i32, ptr %5, align 4
  %137 = sext i32 %136 to i64
  %138 = getelementptr inbounds [3 x ptr], ptr %135, i64 0, i64 %137
  store ptr %127, ptr %138, align 8
  br label %139

139:                                              ; preds = %112
  %140 = load i32, ptr %5, align 4
  %141 = add nsw i32 %140, 1
  store i32 %141, ptr %5, align 4
  br label %109, !llvm.loop !8

142:                                              ; preds = %109
  br label %143

143:                                              ; preds = %142
  %144 = load i32, ptr %6, align 4
  %145 = add nsw i32 %144, 1
  store i32 %145, ptr %6, align 4
  br label %105, !llvm.loop !9

146:                                              ; preds = %105
  br label %147

147:                                              ; preds = %146
  %148 = load i32, ptr %3, align 4
  %149 = add nsw i32 %148, 1
  store i32 %149, ptr %3, align 4
  br label %18, !llvm.loop !10

150:                                              ; preds = %18
  %151 = load ptr, ptr %2, align 8
  %152 = getelementptr inbounds %struct.VP8EncProba, ptr %151, i32 0, i32 6
  store i32 0, ptr %152, align 8
  br label %153

153:                                              ; preds = %150, %16
  ret void
}