; Function Attrs: nofree norecurse nosync nounwind memory(argmem: readwrite) uwtable
define hidden void @VP8CalculateLevelCosts(ptr noundef %0) local_unnamed_addr #0 {
  %2 = getelementptr inbounds i8, ptr %0, i64 19880
  %3 = load i32, ptr %2, align 8
  %.not = icmp eq i32 %3, 0
  br i1 %.not, label %54, label %.preheader57

.preheader57:                                     ; preds = %1
  %4 = getelementptr inbounds i8, ptr %0, i64 4
  %5 = getelementptr inbounds i8, ptr %0, i64 5284
  %6 = getelementptr inbounds i8, ptr %0, i64 18344
  br label %.preheader56

.preheader56:                                     ; preds = %.preheader57, %52
  %indvars.iv81 = phi i64 [ 0, %.preheader57 ], [ %indvars.iv.next82, %52 ]
  br label %.preheader54

.preheader54:                                     ; preds = %.preheader56, %44
  %indvars.iv69 = phi i64 [ 0, %.preheader56 ], [ %indvars.iv.next70, %44 ]
  br label %7

7:                                                ; preds = %.preheader54, %43
  %indvars.iv65 = phi i64 [ 0, %.preheader54 ], [ %indvars.iv.next66, %43 ]
  %8 = getelementptr inbounds [4 x [8 x [3 x [11 x i8]]]], ptr %4, i64 0, i64 %indvars.iv81, i64 %indvars.iv69, i64 %indvars.iv65
  %9 = getelementptr inbounds [4 x [8 x [3 x [68 x i16]]]], ptr %5, i64 0, i64 %indvars.iv81, i64 %indvars.iv69, i64 %indvars.iv65
  %.not45 = icmp eq i64 %indvars.iv65, 0
  br i1 %.not45, label %13, label %10

10:                                               ; preds = %7
  %11 = load i8, ptr %8, align 1
  %.pn.in.i = xor i8 %11, -1
  %.pn.i = zext i8 %.pn.in.i to i64
  %.in.in.i = getelementptr inbounds [256 x i16], ptr @VP8EntropyCost, i64 0, i64 %.pn.i
  %.in.i = load i16, ptr %.in.in.i, align 2
  %12 = zext i16 %.in.i to i32
  br label %13

13:                                               ; preds = %7, %10
  %14 = phi i32 [ %12, %10 ], [ 0, %7 ]
  %15 = getelementptr inbounds i8, ptr %8, i64 1
  %16 = load i8, ptr %15, align 1
  %.pn.in.i46 = xor i8 %16, -1
  %.pn.i47 = zext i8 %.pn.in.i46 to i64
  %.in.in.i48 = getelementptr inbounds [256 x i16], ptr @VP8EntropyCost, i64 0, i64 %.pn.i47
  %.in.i49 = load i16, ptr %.in.in.i48, align 2
  %17 = zext i16 %.in.i49 to i32
  %18 = add nuw nsw i32 %14, %17
  %.pn.i51 = zext i8 %16 to i64
  %.in.in.i52 = getelementptr inbounds [256 x i16], ptr @VP8EntropyCost, i64 0, i64 %.pn.i51
  %.in.i53 = load i16, ptr %.in.in.i52, align 2
  %19 = trunc nuw i32 %14 to i16
  %20 = add i16 %.in.i53, %19
  store i16 %20, ptr %9, align 2
  br label %21

21:                                               ; preds = %13, %VariableLevelCost.exit
  %indvars.iv = phi i64 [ 1, %13 ], [ %indvars.iv.next, %VariableLevelCost.exit ]
  %22 = add nsw i64 %indvars.iv, -1
  %23 = getelementptr inbounds [67 x [2 x i16]], ptr @VP8LevelCodes, i64 0, i64 %22
  %24 = load i16, ptr %23, align 4
  %.not15.i = icmp eq i16 %24, 0
  br i1 %.not15.i, label %VariableLevelCost.exit, label %.lr.ph.preheader.i

.lr.ph.preheader.i:                               ; preds = %21
  %25 = getelementptr inbounds i8, ptr %23, i64 2
  %26 = load i16, ptr %25, align 2
  %27 = zext i16 %24 to i32
  br label %.lr.ph.i

.lr.ph.i:                                         ; preds = %37, %.lr.ph.preheader.i
  %indvars.iv.i = phi i64 [ 2, %.lr.ph.preheader.i ], [ %indvars.iv.next.i, %37 ]
  %.01118.i = phi i32 [ 0, %.lr.ph.preheader.i ], [ %.1.i, %37 ]
  %.01217.i = phi i16 [ %26, %.lr.ph.preheader.i ], [ %38, %37 ]
  %.01316.i = phi i32 [ %27, %.lr.ph.preheader.i ], [ %39, %37 ]
  %28 = and i32 %.01316.i, 1
  %.not14.i = icmp eq i32 %28, 0
  br i1 %.not14.i, label %37, label %29

29:                                               ; preds = %.lr.ph.i
  %30 = getelementptr inbounds i8, ptr %8, i64 %indvars.iv.i
  %31 = load i8, ptr %30, align 1
  %32 = trunc i16 %.01217.i to i8
  %33 = and i8 %32, 1
  %34 = sub nsw i8 0, %33
  %.pn.in.i.i = xor i8 %31, %34
  %.pn.i.i = zext i8 %.pn.in.i.i to i64
  %.in.in.i.i = getelementptr inbounds [256 x i16], ptr @VP8EntropyCost, i64 0, i64 %.pn.i.i
  %.in.i.i = load i16, ptr %.in.in.i.i, align 2
  %35 = zext i16 %.in.i.i to i32
  %36 = add nsw i32 %.01118.i, %35
  br label %37

37:                                               ; preds = %29, %.lr.ph.i
  %.1.i = phi i32 [ %36, %29 ], [ %.01118.i, %.lr.ph.i ]
  %38 = lshr i16 %.01217.i, 1
  %39 = lshr i32 %.01316.i, 1
  %indvars.iv.next.i = add nuw nsw i64 %indvars.iv.i, 1
  %.not.i = icmp ult i32 %.01316.i, 2
  br i1 %.not.i, label %VariableLevelCost.exit, label %.lr.ph.i, !llvm.loop !4

VariableLevelCost.exit:                           ; preds = %37, %21
  %.011.lcssa.i = phi i32 [ 0, %21 ], [ %.1.i, %37 ]
  %40 = add nsw i32 %18, %.011.lcssa.i
  %41 = trunc i32 %40 to i16
  %42 = getelementptr inbounds i16, ptr %9, i64 %indvars.iv
  store i16 %41, ptr %42, align 2
  %indvars.iv.next = add nuw nsw i64 %indvars.iv, 1
  %exitcond.not = icmp eq i64 %indvars.iv.next, 68
  br i1 %exitcond.not, label %43, label %21, !llvm.loop !6

43:                                               ; preds = %VariableLevelCost.exit
  %indvars.iv.next66 = add nuw nsw i64 %indvars.iv65, 1
  %exitcond68.not = icmp eq i64 %indvars.iv.next66, 3
  br i1 %exitcond68.not, label %44, label %7, !llvm.loop !7

44:                                               ; preds = %43
  %indvars.iv.next70 = add nuw nsw i64 %indvars.iv69, 1
  %exitcond72.not = icmp eq i64 %indvars.iv.next70, 8
  br i1 %exitcond72.not, label %.preheader, label %.preheader54, !llvm.loop !8

.preheader:                                       ; preds = %44, %51
  %indvars.iv77 = phi i64 [ %indvars.iv.next78, %51 ], [ 0, %44 ]
  %45 = getelementptr inbounds [17 x i8], ptr @VP8EncBands, i64 0, i64 %indvars.iv77
  %46 = load i8, ptr %45, align 1
  %47 = zext i8 %46 to i64
  br label %48

48:                                               ; preds = %.preheader, %48
  %indvars.iv73 = phi i64 [ 0, %.preheader ], [ %indvars.iv.next74, %48 ]
  %49 = getelementptr inbounds [4 x [8 x [3 x [68 x i16]]]], ptr %5, i64 0, i64 %indvars.iv81, i64 %47, i64 %indvars.iv73
  %50 = getelementptr inbounds [4 x [16 x [3 x ptr]]], ptr %6, i64 0, i64 %indvars.iv81, i64 %indvars.iv77, i64 %indvars.iv73
  store ptr %49, ptr %50, align 8
  %indvars.iv.next74 = add nuw nsw i64 %indvars.iv73, 1
  %exitcond76.not = icmp eq i64 %indvars.iv.next74, 3
  br i1 %exitcond76.not, label %51, label %48, !llvm.loop !9

51:                                               ; preds = %48
  %indvars.iv.next78 = add nuw nsw i64 %indvars.iv77, 1
  %exitcond80.not = icmp eq i64 %indvars.iv.next78, 16
  br i1 %exitcond80.not, label %52, label %.preheader, !llvm.loop !10

52:                                               ; preds = %51
  %indvars.iv.next82 = add nuw nsw i64 %indvars.iv81, 1
  %exitcond84.not = icmp eq i64 %indvars.iv.next82, 4
  br i1 %exitcond84.not, label %53, label %.preheader56, !llvm.loop !11

53:                                               ; preds = %52
  store i32 0, ptr %2, align 8
  br label %54

54:                                               ; preds = %1, %53
  ret void
}